; Function Attrs: mustprogress uwtable
define hidden void @_ZN3smt10seq_axioms6mk_lenEP4expr(ptr dead_on_unwind noalias writable sret(%class.obj_ref) align 8 initializes((0, 16)) %0, ptr noundef nonnull readonly align 8 captures(none) dereferenceable(1240) %1, ptr noundef %2) local_unnamed_addr #4 align 2 personality ptr @__gxx_personality_v0 {
  %4 = alloca ptr, align 8
  call void @llvm.lifetime.start.p0(i64 8, ptr nonnull %4)
  store ptr %2, ptr %4, align 8, !tbaa !84
  %5 = getelementptr inbounds nuw i8, ptr %1, i64 80
  %6 = load ptr, ptr %5, align 8, !tbaa !97
  %7 = getelementptr inbounds nuw i8, ptr %1, i64 88
  %8 = load i32, ptr %7, align 8, !tbaa !64
  %9 = call noundef ptr @_ZN11ast_manager6mk_appEiijPKP4expr(ptr noundef nonnull align 8 dereferenceable(976) %6, i32 noundef %8, i32 noundef 12, i32 noundef 1, ptr noundef nonnull %4)
  call void @llvm.lifetime.end.p0(i64 8, ptr nonnull %4)
  %10 = getelementptr inbounds nuw i8, ptr %1, i64 16
  %11 = load ptr, ptr %10, align 8, !tbaa !12
  store ptr %9, ptr %0, align 8, !tbaa !93
  %12 = getelementptr inbounds nuw i8, ptr %0, i64 8
  store ptr %11, ptr %12, align 8, !tbaa !10
  %.not.i.i = icmp eq ptr %9, null
  br i1 %.not.i.i, label %_ZN7obj_refI4expr11ast_managerEC2EPS0_RS1_.exit, label %_ZN11ast_manager7inc_refEP3ast.exit.i.i

_ZN11ast_manager7inc_refEP3ast.exit.i.i:          ; preds = %3
  %13 = getelementptr inbounds nuw i8, ptr %9, i64 8
  %14 = load i32, ptr %13, align 4, !tbaa !87
  %15 = add i32 %14, 1
  store i32 %15, ptr %13, align 4, !tbaa !87
  br label %_ZN7obj_refI4expr11ast_managerEC2EPS0_RS1_.exit

_ZN7obj_refI4expr11ast_managerEC2EPS0_RS1_.exit:  ; preds = %3, %_ZN11ast_manager7inc_refEP3ast.exit.i.i
  %16 = getelementptr inbounds nuw i8, ptr %1, i64 8
  %17 = load ptr, ptr %16, align 8, !tbaa !95
  invoke void @_ZN11th_rewriterclER7obj_refI4expr11ast_managerE(ptr noundef nonnull align 8 dereferenceable(16) %17, ptr noundef nonnull align 8 dereferenceable(16) %0)
          to label %20 unwind label %18

18:                                               ; preds = %_ZN7obj_refI4expr11ast_managerEC2EPS0_RS1_.exit
  %19 = landingpad { ptr, i32 }
          cleanup
  call void @_ZN7obj_refI4expr11ast_managerED2Ev(ptr noundef nonnull align 8 dereferenceable(16) %0) #19
  resume { ptr, i32 } %19

20:                                               ; preds = %_ZN7obj_refI4expr11ast_managerEC2EPS0_RS1_.exit
  ret void
}